; ModuleID = '30/3012.c'
source_filename = "30/3012.c"
target datalayout = "e-m:e-p270:32:32-p271:32:32-p272:64:64-i64:64-f80:128-n8:16:32:64-S128"
target triple = "x86_64-pc-linux-gnu"

@.str = private unnamed_addr constant [3 x i8] c"%d\00", align 1

; Function Attrs: noinline nounwind uwtable
define dso_local i32 @has7(i32 %0) #0 {
  %2 = alloca i32, align 4
  %3 = alloca i32, align 4
  %4 = alloca i32, align 4
  %5 = alloca i32, align 4
  %6 = alloca i32, align 4
  %7 = alloca i32, align 4
  store i32 %0, i32* %2, align 4
  store i32 0, i32* %6, align 4
  store i32 0, i32* %3, align 4
  %8 = load i32, i32* %2, align 4
  store i32 %8, i32* %4, align 4
  br label %9

9:                                                ; preds = %14, %1
  %10 = load i32, i32* %4, align 4
  %11 = sdiv i32 %10, 10
  store i32 %11, i32* %4, align 4
  %12 = load i32, i32* %3, align 4
  %13 = add nsw i32 %12, 1
  store i32 %13, i32* %3, align 4
  br label %14

14:                                               ; preds = %9
  %15 = load i32, i32* %4, align 4
  %16 = icmp sgt i32 %15, 0
  br i1 %16, label %9, label %17

17:                                               ; preds = %14
  %18 = load i32, i32* %3, align 4
  %19 = sub nsw i32 %18, 1
  store i32 %19, i32* %7, align 4
  br label %20

20:                                               ; preds = %43, %17
  %21 = load i32, i32* %7, align 4
  %22 = icmp sge i32 %21, 0
  br i1 %22, label %23, label %46

23:                                               ; preds = %20
  %24 = load i32, i32* %2, align 4
  %25 = sitofp i32 %24 to double
  %26 = load i32, i32* %7, align 4
  %27 = sitofp i32 %26 to double
  %28 = call double @pow(double 1.000000e+01, double %27) #3
  %29 = fdiv double %25, %28
  %30 = fptosi double %29 to i32
  store i32 %30, i32* %5, align 4
  %31 = load i32, i32* %5, align 4
  %32 = icmp eq i32 %31, 7
  br i1 %32, label %33, label %34

33:                                               ; preds = %23
  store i32 1, i32* %6, align 4
  br label %46

34:                                               ; preds = %23
  %35 = load i32, i32* %2, align 4
  %36 = load i32, i32* %5, align 4
  %37 = load i32, i32* %7, align 4
  %38 = sitofp i32 %37 to double
  %39 = call double @pow(double 1.000000e+01, double %38) #3
  %40 = fptosi double %39 to i32
  %41 = mul nsw i32 %36, %40
  %42 = sub nsw i32 %35, %41
  store i32 %42, i32* %2, align 4
  br label %43

43:                                               ; preds = %34
  %44 = load i32, i32* %7, align 4
  %45 = add nsw i32 %44, -1
  store i32 %45, i32* %7, align 4
  br label %20

46:                                               ; preds = %33, %20
  %47 = load i32, i32* %6, align 4
  ret i32 %47
}

; Function Attrs: nounwind
declare dso_local double @pow(double, double) #1

; Function Attrs: noinline nounwind uwtable
define dso_local i32 @main() #0 {
  %1 = alloca i32, align 4
  %2 = alloca i32, align 4
  %3 = alloca i32, align 4
  %4 = alloca i32, align 4
  store i32 0, i32* %1, align 4
  store i32 0, i32* %4, align 4
  %5 = call i32 (i8*, ...) @__isoc99_scanf(i8* getelementptr inbounds ([3 x i8], [3 x i8]* @.str, i64 0, i64 0), i32* %2)
  store i32 1, i32* %3, align 4
  br label %6

6:                                                ; preds = %25, %0
  %7 = load i32, i32* %3, align 4
  %8 = load i32, i32* %2, align 4
  %9 = icmp sle i32 %7, %8
  br i1 %9, label %10, label %28

10:                                               ; preds = %6
  %11 = load i32, i32* %3, align 4
  %12 = srem i32 %11, 7
  %13 = icmp ne i32 %12, 0
  br i1 %13, label %14, label %24

14:                                               ; preds = %10
  %15 = load i32, i32* %3, align 4
  %16 = call i32 @has7(i32 %15)
  %17 = icmp eq i32 %16, 0
  br i1 %17, label %18, label %24

18:                                               ; preds = %14
  %19 = load i32, i32* %4, align 4
  %20 = load i32, i32* %3, align 4
  %21 = load i32, i32* %3, align 4
  %22 = mul nsw i32 %20, %21
  %23 = add nsw i32 %19, %22
  store i32 %23, i32* %4, align 4
  br label %24

24:                                               ; preds = %18, %14, %10
  br label %25

25:                                               ; preds = %24
  %26 = load i32, i32* %3, align 4
  %27 = add nsw i32 %26, 1
  store i32 %27, i32* %3, align 4
  br label %6

28:                                               ; preds = %6
  %29 = load i32, i32* %4, align 4
  %30 = call i32 (i8*, ...) @printf(i8* getelementptr inbounds ([3 x i8], [3 x i8]* @.str, i64 0, i64 0), i32 %29)
  ret i32 0
}

declare dso_local i32 @__isoc99_scanf(i8*, ...) #2

declare dso_local i32 @printf(i8*, ...) #2


!llvm.module.flags = !{!0}
!llvm.ident = !{!1}

!0 = !{i32 1, !"wchar_size", i32 4}
!1 = !{!"clang version 10.0.0-4ubuntu1 "}
